ARM GAS  C:\Users\STUDEN~1\AppData\Local\Temp\cc9ydicC.s 			page 1


   1              		.syntax unified
   2              		.cpu cortex-m0
   3              		.fpu softvfp
   4              		.eabi_attribute 20, 1
   5              		.eabi_attribute 21, 1
   6              		.eabi_attribute 23, 3
   7              		.eabi_attribute 24, 1
   8              		.eabi_attribute 25, 1
   9              		.eabi_attribute 26, 1
  10              		.eabi_attribute 30, 1
  11              		.eabi_attribute 34, 0
  12              		.eabi_attribute 18, 4
  13              		.thumb
  14              		.syntax unified
  15              		.file	"main.c"
  16              		.text
  17              	.Ltext0:
  18              		.cfi_sections	.debug_frame
  19              		.global	__aeabi_i2f
  20              		.global	__aeabi_fmul
  21              		.global	__aeabi_fadd
  22              		.global	__aeabi_f2uiz
  23              		.section	.text.MySinusDac,"ax",%progbits
  24              		.align	2
  25              		.global	MySinusDac
  26              		.code	16
  27              		.thumb_func
  28              		.type	MySinusDac, %function
  29              	MySinusDac:
  30              	.LFB32:
  31              		.file 1 "main.c"
   1:main.c        **** #include "project.h"
   2:main.c        **** 
   3:main.c        **** const uint8 sinus[] = 
   4:main.c        **** {
   5:main.c        ****     128, 167, 203, 231, 249,
   6:main.c        ****     255, 249, 231, 203, 167,
   7:main.c        ****     128, 89, 53, 25, 7,
   8:main.c        ****     1, 7, 25, 53, 89
   9:main.c        **** };
  10:main.c        **** 
  11:main.c        **** int32 n = 0;
  12:main.c        **** uint32 n1 = 0;
  13:main.c        **** 
  14:main.c        **** float kMode1 = 0.9999625;
  15:main.c        **** float kMode2 = 0.9999125;
  16:main.c        **** float k = 0;
  17:main.c        **** float y = 0;
  18:main.c        **** 
  19:main.c        **** CY_ISR(MySinusDac)
  20:main.c        **** {
  32              		.loc 1 20 0
  33              		.cfi_startproc
  34              		@ args = 0, pretend = 0, frame = 0
  35              		@ frame_needed = 0, uses_anonymous_args = 0
  36 0000 70B5     		push	{r4, r5, r6, lr}
  37              		.cfi_def_cfa_offset 16
ARM GAS  C:\Users\STUDEN~1\AppData\Local\Temp\cc9ydicC.s 			page 2


  38              		.cfi_offset 4, -16
  39              		.cfi_offset 5, -12
  40              		.cfi_offset 6, -8
  41              		.cfi_offset 14, -4
  21:main.c        ****     float temp = (sinus[n] - 127) * y + 127;
  42              		.loc 1 21 0
  43 0002 0F4C     		ldr	r4, .L3
  44 0004 0F4B     		ldr	r3, .L3+4
  45 0006 2268     		ldr	r2, [r4]
  46 0008 985C     		ldrb	r0, [r3, r2]
  47 000a 7F38     		subs	r0, r0, #127
  48 000c FFF7FEFF 		bl	__aeabi_i2f
  49              	.LVL0:
  50 0010 6168     		ldr	r1, [r4, #4]
  51 0012 FFF7FEFF 		bl	__aeabi_fmul
  52              	.LVL1:
  53 0016 0C49     		ldr	r1, .L3+8
  54 0018 FFF7FEFF 		bl	__aeabi_fadd
  55              	.LVL2:
  22:main.c        ****     IDAC_SetValue(temp);
  56              		.loc 1 22 0
  57 001c FFF7FEFF 		bl	__aeabi_f2uiz
  58              	.LVL3:
  59 0020 FFF7FEFF 		bl	IDAC_SetValue
  60              	.LVL4:
  23:main.c        ****     
  24:main.c        ****     n++;
  61              		.loc 1 24 0
  62 0024 2368     		ldr	r3, [r4]
  63 0026 5D1C     		adds	r5, r3, #1
  64 0028 2560     		str	r5, [r4]
  25:main.c        ****     y = y * k;
  65              		.loc 1 25 0
  66 002a A168     		ldr	r1, [r4, #8]
  67 002c 6068     		ldr	r0, [r4, #4]
  68 002e FFF7FEFF 		bl	__aeabi_fmul
  69              	.LVL5:
  70 0032 6060     		str	r0, [r4, #4]
  26:main.c        ****     if(n == 20)
  71              		.loc 1 26 0
  72 0034 142D     		cmp	r5, #20
  73 0036 02D1     		bne	.L1
  27:main.c        ****     {
  28:main.c        ****         n = 0;
  74              		.loc 1 28 0
  75 0038 0022     		movs	r2, #0
  76 003a 014B     		ldr	r3, .L3
  77 003c 1A60     		str	r2, [r3]
  78              	.L1:
  29:main.c        ****     }
  30:main.c        **** }
  79              		.loc 1 30 0
  80              		@ sp needed
  81 003e 70BD     		pop	{r4, r5, r6, pc}
  82              	.L4:
  83              		.align	2
  84              	.L3:
ARM GAS  C:\Users\STUDEN~1\AppData\Local\Temp\cc9ydicC.s 			page 3


  85 0040 00000000 		.word	.LANCHOR1
  86 0044 00000000 		.word	.LANCHOR0
  87 0048 0000FE42 		.word	1123942400
  88              		.cfi_endproc
  89              	.LFE32:
  90              		.size	MySinusDac, .-MySinusDac
  91              		.section	.text.BtnStart,"ax",%progbits
  92              		.align	2
  93              		.global	BtnStart
  94              		.code	16
  95              		.thumb_func
  96              		.type	BtnStart, %function
  97              	BtnStart:
  98              	.LFB33:
  31:main.c        **** 
  32:main.c        **** CY_ISR(BtnStart)
  33:main.c        **** {
  99              		.loc 1 33 0
 100              		.cfi_startproc
 101              		@ args = 0, pretend = 0, frame = 0
 102              		@ frame_needed = 0, uses_anonymous_args = 0
 103 0000 10B5     		push	{r4, lr}
 104              		.cfi_def_cfa_offset 8
 105              		.cfi_offset 4, -8
 106              		.cfi_offset 14, -4
  34:main.c        ****     y=1;
 107              		.loc 1 34 0
 108 0002 FE22     		movs	r2, #254
 109 0004 9205     		lsls	r2, r2, #22
 110 0006 064B     		ldr	r3, .L6
 111 0008 5A60     		str	r2, [r3, #4]
  35:main.c        ****     LCD_Position(1, 9);
 112              		.loc 1 35 0
 113 000a 0921     		movs	r1, #9
 114 000c 0120     		movs	r0, #1
 115 000e FFF7FEFF 		bl	LCD_Position
 116              	.LVL6:
  36:main.c        ****     LCD_PrintString("Start");
 117              		.loc 1 36 0
 118 0012 0448     		ldr	r0, .L6+4
 119 0014 FFF7FEFF 		bl	LCD_PrintString
 120              	.LVL7:
  37:main.c        ****     Timer_Stop_Start();
 121              		.loc 1 37 0
 122 0018 FFF7FEFF 		bl	Timer_Stop_Start
 123              	.LVL8:
  38:main.c        **** }
 124              		.loc 1 38 0
 125              		@ sp needed
 126 001c 10BD     		pop	{r4, pc}
 127              	.L7:
 128 001e C046     		.align	2
 129              	.L6:
 130 0020 00000000 		.word	.LANCHOR1
 131 0024 00000000 		.word	.LC3
 132              		.cfi_endproc
 133              	.LFE33:
ARM GAS  C:\Users\STUDEN~1\AppData\Local\Temp\cc9ydicC.s 			page 4


 134              		.size	BtnStart, .-BtnStart
 135              		.section	.text.TimerStop,"ax",%progbits
 136              		.align	2
 137              		.global	TimerStop
 138              		.code	16
 139              		.thumb_func
 140              		.type	TimerStop, %function
 141              	TimerStop:
 142              	.LFB34:
  39:main.c        **** 
  40:main.c        **** CY_ISR(TimerStop)
  41:main.c        **** {
 143              		.loc 1 41 0
 144              		.cfi_startproc
 145              		@ args = 0, pretend = 0, frame = 0
 146              		@ frame_needed = 0, uses_anonymous_args = 0
 147 0000 10B5     		push	{r4, lr}
 148              		.cfi_def_cfa_offset 8
 149              		.cfi_offset 4, -8
 150              		.cfi_offset 14, -4
  42:main.c        ****         LCD_Position(1, 9);
 151              		.loc 1 42 0
 152 0002 0921     		movs	r1, #9
 153 0004 0120     		movs	r0, #1
 154 0006 FFF7FEFF 		bl	LCD_Position
 155              	.LVL9:
  43:main.c        ****         LCD_PrintString("     ");
 156              		.loc 1 43 0
 157 000a 0448     		ldr	r0, .L9
 158 000c FFF7FEFF 		bl	LCD_PrintString
 159              	.LVL10:
  44:main.c        ****         y = 0;
 160              		.loc 1 44 0
 161 0010 0022     		movs	r2, #0
 162 0012 034B     		ldr	r3, .L9+4
 163 0014 5A60     		str	r2, [r3, #4]
  45:main.c        ****         Timer_Stop_Stop();
 164              		.loc 1 45 0
 165 0016 FFF7FEFF 		bl	Timer_Stop_Stop
 166              	.LVL11:
  46:main.c        **** }
 167              		.loc 1 46 0
 168              		@ sp needed
 169 001a 10BD     		pop	{r4, pc}
 170              	.L10:
 171              		.align	2
 172              	.L9:
 173 001c 08000000 		.word	.LC5
 174 0020 00000000 		.word	.LANCHOR1
 175              		.cfi_endproc
 176              	.LFE34:
 177              		.size	TimerStop, .-TimerStop
 178              		.section	.text.main,"ax",%progbits
 179              		.align	2
 180              		.global	main
 181              		.code	16
 182              		.thumb_func
ARM GAS  C:\Users\STUDEN~1\AppData\Local\Temp\cc9ydicC.s 			page 5


 183              		.type	main, %function
 184              	main:
 185              	.LFB35:
  47:main.c        **** 
  48:main.c        **** uint8 pinVal;
  49:main.c        **** 
  50:main.c        **** int main(void)
  51:main.c        **** {
 186              		.loc 1 51 0
 187              		.cfi_startproc
 188              		@ Volatile: function does not return.
 189              		@ args = 0, pretend = 0, frame = 0
 190              		@ frame_needed = 0, uses_anonymous_args = 0
 191 0000 10B5     		push	{r4, lr}
 192              		.cfi_def_cfa_offset 8
 193              		.cfi_offset 4, -8
 194              		.cfi_offset 14, -4
  52:main.c        ****     CyGlobalIntEnable; 
 195              		.loc 1 52 0
 196              		.syntax divided
 197              	@ 52 "main.c" 1
 198 0002 62B6     		CPSIE   i
 199              	@ 0 "" 2
  53:main.c        ****     
  54:main.c        ****     Timer_Start();
 200              		.loc 1 54 0
 201              		.thumb
 202              		.syntax unified
 203 0004 FFF7FEFF 		bl	Timer_Start
 204              	.LVL12:
  55:main.c        ****     IDAC_Start();
 205              		.loc 1 55 0
 206 0008 FFF7FEFF 		bl	IDAC_Start
 207              	.LVL13:
  56:main.c        ****     
  57:main.c        ****         LCD_Init();
 208              		.loc 1 57 0
 209 000c FFF7FEFF 		bl	LCD_Init
 210              	.LVL14:
  58:main.c        ****         LCD_Position(0, 3);
 211              		.loc 1 58 0
 212 0010 0321     		movs	r1, #3
 213 0012 0020     		movs	r0, #0
 214 0014 FFF7FEFF 		bl	LCD_Position
 215              	.LVL15:
  59:main.c        ****         LCD_PrintString("Rising exp");
 216              		.loc 1 59 0
 217 0018 1E48     		ldr	r0, .L15
 218 001a FFF7FEFF 		bl	LCD_PrintString
 219              	.LVL16:
  60:main.c        ****         k = kMode1;
 220              		.loc 1 60 0
 221 001e 1E4B     		ldr	r3, .L15+4
 222 0020 1A68     		ldr	r2, [r3]
 223 0022 1E4B     		ldr	r3, .L15+8
 224 0024 9A60     		str	r2, [r3, #8]
  61:main.c        ****     isr_start_StartEx(BtnStart);
ARM GAS  C:\Users\STUDEN~1\AppData\Local\Temp\cc9ydicC.s 			page 6


 225              		.loc 1 61 0
 226 0026 1E48     		ldr	r0, .L15+12
 227 0028 FFF7FEFF 		bl	isr_start_StartEx
 228              	.LVL17:
  62:main.c        ****     isr_StartEx(MySinusDac);
 229              		.loc 1 62 0
 230 002c 1D48     		ldr	r0, .L15+16
 231 002e FFF7FEFF 		bl	isr_StartEx
 232              	.LVL18:
  63:main.c        ****     
  64:main.c        ****     isr_stop_StartEx(TimerStop);
 233              		.loc 1 64 0
 234 0032 1D48     		ldr	r0, .L15+20
 235 0034 FFF7FEFF 		bl	isr_stop_StartEx
 236              	.LVL19:
 237              	.L14:
  65:main.c        ****     
  66:main.c        ****     
  67:main.c        ****     for(;;)
  68:main.c        ****     {
  69:main.c        ****        pinVal = Pin_Mode_Read();
 238              		.loc 1 69 0
 239 0038 FFF7FEFF 		bl	Pin_Mode_Read
 240              	.LVL20:
 241 003c 1B4C     		ldr	r4, .L15+24
 242 003e 2070     		strb	r0, [r4]
  70:main.c        ****            
  71:main.c        ****         isr_start_Disable();
 243              		.loc 1 71 0
 244 0040 FFF7FEFF 		bl	isr_start_Disable
 245              	.LVL21:
  72:main.c        ****         isr_stop_Disable();
 246              		.loc 1 72 0
 247 0044 FFF7FEFF 		bl	isr_stop_Disable
 248              	.LVL22:
  73:main.c        ****         LCD_Position(1, 0);
 249              		.loc 1 73 0
 250 0048 0021     		movs	r1, #0
 251 004a 0120     		movs	r0, #1
 252 004c FFF7FEFF 		bl	LCD_Position
 253              	.LVL23:
  74:main.c        ****         LCD_PrintString("Mode ");
 254              		.loc 1 74 0
 255 0050 1748     		ldr	r0, .L15+28
 256 0052 FFF7FEFF 		bl	LCD_PrintString
 257              	.LVL24:
  75:main.c        ****         
  76:main.c        ****         if(pinVal == 1)
 258              		.loc 1 76 0
 259 0056 2378     		ldrb	r3, [r4]
 260 0058 012B     		cmp	r3, #1
 261 005a 0BD1     		bne	.L12
  77:main.c        ****         {
  78:main.c        ****           LCD_Position(1, 5);
 262              		.loc 1 78 0
 263 005c 0521     		movs	r1, #5
 264 005e 0120     		movs	r0, #1
ARM GAS  C:\Users\STUDEN~1\AppData\Local\Temp\cc9ydicC.s 			page 7


 265 0060 FFF7FEFF 		bl	LCD_Position
 266              	.LVL25:
  79:main.c        ****           LCD_PrintString("1:");
 267              		.loc 1 79 0
 268 0064 1348     		ldr	r0, .L15+32
 269 0066 FFF7FEFF 		bl	LCD_PrintString
 270              	.LVL26:
  80:main.c        ****           k = kMode1;
 271              		.loc 1 80 0
 272 006a 0B4B     		ldr	r3, .L15+4
 273 006c 1A68     		ldr	r2, [r3]
 274 006e 0B4B     		ldr	r3, .L15+8
 275 0070 9A60     		str	r2, [r3, #8]
 276 0072 0AE0     		b	.L13
 277              	.L12:
  81:main.c        ****         }
  82:main.c        ****         else
  83:main.c        ****         {
  84:main.c        ****           LCD_Position(1, 5);
 278              		.loc 1 84 0
 279 0074 0521     		movs	r1, #5
 280 0076 0120     		movs	r0, #1
 281 0078 FFF7FEFF 		bl	LCD_Position
 282              	.LVL27:
  85:main.c        ****           LCD_PrintString("2:");
 283              		.loc 1 85 0
 284 007c 0E48     		ldr	r0, .L15+36
 285 007e FFF7FEFF 		bl	LCD_PrintString
 286              	.LVL28:
  86:main.c        ****           k = kMode2;  
 287              		.loc 1 86 0
 288 0082 054B     		ldr	r3, .L15+4
 289 0084 5A68     		ldr	r2, [r3, #4]
 290 0086 054B     		ldr	r3, .L15+8
 291 0088 9A60     		str	r2, [r3, #8]
 292              	.L13:
  87:main.c        ****         }
  88:main.c        ****         
  89:main.c        ****         isr_start_Enable();
 293              		.loc 1 89 0
 294 008a FFF7FEFF 		bl	isr_start_Enable
 295              	.LVL29:
  90:main.c        ****         isr_stop_Enable();
 296              		.loc 1 90 0
 297 008e FFF7FEFF 		bl	isr_stop_Enable
 298              	.LVL30:
  91:main.c        ****     }
 299              		.loc 1 91 0
 300 0092 D1E7     		b	.L14
 301              	.L16:
 302              		.align	2
 303              	.L15:
 304 0094 10000000 		.word	.LC8
 305 0098 00000000 		.word	.LANCHOR2
 306 009c 00000000 		.word	.LANCHOR1
 307 00a0 00000000 		.word	BtnStart
 308 00a4 00000000 		.word	MySinusDac
ARM GAS  C:\Users\STUDEN~1\AppData\Local\Temp\cc9ydicC.s 			page 8


 309 00a8 00000000 		.word	TimerStop
 310 00ac 00000000 		.word	pinVal
 311 00b0 1C000000 		.word	.LC16
 312 00b4 24000000 		.word	.LC18
 313 00b8 28000000 		.word	.LC20
 314              		.cfi_endproc
 315              	.LFE35:
 316              		.size	main, .-main
 317              		.comm	pinVal,1,1
 318              		.global	y
 319              		.global	k
 320              		.global	kMode2
 321              		.global	kMode1
 322              		.global	n1
 323              		.global	n
 324              		.global	sinus
 325              		.section	.rodata
 326              		.align	2
 327              		.set	.LANCHOR0,. + 0
 328              		.type	sinus, %object
 329              		.size	sinus, 20
 330              	sinus:
 331 0000 80       		.byte	-128
 332 0001 A7       		.byte	-89
 333 0002 CB       		.byte	-53
 334 0003 E7       		.byte	-25
 335 0004 F9       		.byte	-7
 336 0005 FF       		.byte	-1
 337 0006 F9       		.byte	-7
 338 0007 E7       		.byte	-25
 339 0008 CB       		.byte	-53
 340 0009 A7       		.byte	-89
 341 000a 80       		.byte	-128
 342 000b 59       		.byte	89
 343 000c 35       		.byte	53
 344 000d 19       		.byte	25
 345 000e 07       		.byte	7
 346 000f 01       		.byte	1
 347 0010 07       		.byte	7
 348 0011 19       		.byte	25
 349 0012 35       		.byte	53
 350 0013 59       		.byte	89
 351              		.data
 352              		.align	2
 353              		.set	.LANCHOR2,. + 0
 354              		.type	kMode1, %object
 355              		.size	kMode1, 4
 356              	kMode1:
 357 0000 8BFD7F3F 		.word	1065352587
 358              		.type	kMode2, %object
 359              		.size	kMode2, 4
 360              	kMode2:
 361 0004 44FA7F3F 		.word	1065351748
 362              		.section	.rodata.str1.4,"aMS",%progbits,1
 363              		.align	2
 364              	.LC3:
 365 0000 53746172 		.ascii	"Start\000"
ARM GAS  C:\Users\STUDEN~1\AppData\Local\Temp\cc9ydicC.s 			page 9


 365      7400
 366 0006 0000     		.space	2
 367              	.LC5:
 368 0008 20202020 		.ascii	"     \000"
 368      2000
 369 000e 0000     		.space	2
 370              	.LC8:
 371 0010 52697369 		.ascii	"Rising exp\000"
 371      6E672065 
 371      787000
 372 001b 00       		.space	1
 373              	.LC16:
 374 001c 4D6F6465 		.ascii	"Mode \000"
 374      2000
 375 0022 0000     		.space	2
 376              	.LC18:
 377 0024 313A00   		.ascii	"1:\000"
 378 0027 00       		.space	1
 379              	.LC20:
 380 0028 323A00   		.ascii	"2:\000"
 381              		.bss
 382              		.align	2
 383              		.set	.LANCHOR1,. + 0
 384              		.type	n, %object
 385              		.size	n, 4
 386              	n:
 387 0000 00000000 		.space	4
 388              		.type	y, %object
 389              		.size	y, 4
 390              	y:
 391 0004 00000000 		.space	4
 392              		.type	k, %object
 393              		.size	k, 4
 394              	k:
 395 0008 00000000 		.space	4
 396              		.type	n1, %object
 397              		.size	n1, 4
 398              	n1:
 399 000c 00000000 		.space	4
 400              		.text
 401              	.Letext0:
 402              		.file 2 "Generated_Source\\PSoC4/cytypes.h"
 403              		.file 3 "Generated_Source\\PSoC4/IDAC.h"
 404              		.file 4 "Generated_Source\\PSoC4/LCD.h"
 405              		.file 5 "Generated_Source\\PSoC4/Timer_Stop.h"
 406              		.file 6 "Generated_Source\\PSoC4/Timer.h"
 407              		.file 7 "Generated_Source\\PSoC4/isr_start.h"
 408              		.file 8 "Generated_Source\\PSoC4/isr.h"
 409              		.file 9 "Generated_Source\\PSoC4/isr_stop.h"
 410              		.file 10 "Generated_Source\\PSoC4/Pin_Mode.h"